target datalayout = "e-m:e-p270:32:32-p271:32:32-p272:64:64-i64:64-i128:128-f80:128-n8:16:32:64-S128"
target triple = "x86_64-pc-linux-gnu"

%struct.FunctionCallInfoBaseData = type { ptr, ptr, ptr, i32, i8, i16, [0 x %struct.NullableDatum] }
%struct.NullableDatum = type { i64, i8 }
%struct.__jmp_buf_tag = type { [8 x i64], i32, %struct.__sigset_t }
%struct.__sigset_t = type { [16 x i64] }

@.str.2 = private unnamed_addr constant [13 x i8] c"be-fsstubs.c\00", align 1
@lo_cleanup_needed = internal global i8 0, align 1
@CurrentMemoryContext = external global ptr, align 8
@PG_exception_stack = external global ptr, align 8
@error_context_stack = external global ptr, align 8
@.str.13 = private unnamed_addr constant [38 x i8] c"could not create server file \22%s\22: %m\00", align 1
@__func__.be_lo_export = private unnamed_addr constant [13 x i8] c"be_lo_export\00", align 1
@.str.14 = private unnamed_addr constant [37 x i8] c"could not write server file \22%s\22: %m\00", align 1
@.str.15 = private unnamed_addr constant [30 x i8] c"could not close file \22%s\22: %m\00", align 1

; Function Attrs: inlinehint nounwind uwtable
define internal i64 @Int32GetDatum(i32 noundef %0) #2 {
  %2 = alloca i32, align 4
  store i32 %0, ptr %2, align 4
  %3 = load i32, ptr %2, align 4
  %4 = sext i32 %3 to i64
  ret i64 %4
}

; Function Attrs: inlinehint nounwind uwtable
define internal ptr @DatumGetPointer(i64 noundef %0) #2 {
  %2 = alloca i64, align 8
  store i64 %0, ptr %2, align 8
  %3 = load i64, ptr %2, align 8
  %4 = inttoptr i64 %3 to ptr
  ret ptr %4
}

; Function Attrs: inlinehint nounwind uwtable
define internal i32 @DatumGetObjectId(i64 noundef %0) #2 {
  %2 = alloca i64, align 8
  store i64 %0, ptr %2, align 8
  %3 = load i64, ptr %2, align 8
  %4 = trunc i64 %3 to i32
  ret i32 %4
}

; Function Attrs: nounwind uwtable
define dso_local i64 @be_lo_export(ptr noundef %0) #0 {
  %2 = alloca ptr, align 8
  %3 = alloca i32, align 4
  %4 = alloca ptr, align 8
  %5 = alloca i32, align 4
  %6 = alloca i32, align 4
  %7 = alloca i32, align 4
  %8 = alloca [8192 x i8], align 16
  %9 = alloca [1024 x i8], align 16
  %10 = alloca ptr, align 8
  %11 = alloca i32, align 4
  %12 = alloca ptr, align 8
  %13 = alloca ptr, align 8
  %14 = alloca [1 x %struct.__jmp_buf_tag], align 16
  %15 = alloca i8, align 1
  store ptr %0, ptr %2, align 8
  call void @llvm.lifetime.start.p0(i64 4, ptr %3) #8
  %16 = load ptr, ptr %2, align 8
  %17 = getelementptr inbounds nuw %struct.FunctionCallInfoBaseData, ptr %16, i32 0, i32 6
  %18 = getelementptr inbounds [0 x %struct.NullableDatum], ptr %17, i64 0, i64 0
  %19 = getelementptr inbounds nuw %struct.NullableDatum, ptr %18, i32 0, i32 0
  %20 = load i64, ptr %19, align 8
  %21 = call i32 @DatumGetObjectId(i64 noundef %20)
  store i32 %21, ptr %3, align 4
  call void @llvm.lifetime.start.p0(i64 8, ptr %4) #8
  %22 = load ptr, ptr %2, align 8
  %23 = getelementptr inbounds nuw %struct.FunctionCallInfoBaseData, ptr %22, i32 0, i32 6
  %24 = getelementptr inbounds [0 x %struct.NullableDatum], ptr %23, i64 0, i64 1
  %25 = getelementptr inbounds nuw %struct.NullableDatum, ptr %24, i32 0, i32 0
  %26 = load i64, ptr %25, align 8
  %27 = call ptr @DatumGetPointer(i64 noundef %26)
  %28 = call ptr @pg_detoast_datum_packed(ptr noundef %27)
  store ptr %28, ptr %4, align 8
  call void @llvm.lifetime.start.p0(i64 4, ptr %5) #8
  call void @llvm.lifetime.start.p0(i64 4, ptr %6) #8
  call void @llvm.lifetime.start.p0(i64 4, ptr %7) #8
  call void @llvm.lifetime.start.p0(i64 8192, ptr %8) #8
  call void @llvm.lifetime.start.p0(i64 1024, ptr %9) #8
  call void @llvm.lifetime.start.p0(i64 8, ptr %10) #8
  call void @llvm.lifetime.start.p0(i64 4, ptr %11) #8
  store i8 1, ptr @lo_cleanup_needed, align 1
  %29 = load i32, ptr %3, align 4
  %30 = load ptr, ptr @CurrentMemoryContext, align 8
  %31 = call ptr @inv_open(i32 noundef %29, i32 noundef 262144, ptr noundef %30)
  store ptr %31, ptr %10, align 8
  %32 = load ptr, ptr %4, align 8
  %33 = getelementptr inbounds [1024 x i8], ptr %9, i64 0, i64 0
  call void @text_to_cstring_buffer(ptr noundef %32, ptr noundef %33, i64 noundef 1024)
  %34 = call i32 @umask(i32 noundef 18) #8
  store i32 %34, ptr %11, align 4
  br label %35

35:                                               ; preds = %1
  call void @llvm.lifetime.start.p0(i64 8, ptr %12) #8
  %36 = load ptr, ptr @PG_exception_stack, align 8
  store ptr %36, ptr %12, align 8
  call void @llvm.lifetime.start.p0(i64 8, ptr %13) #8
  %37 = load ptr, ptr @error_context_stack, align 8
  store ptr %37, ptr %13, align 8
  call void @llvm.lifetime.start.p0(i64 200, ptr %14) #8
  call void @llvm.lifetime.start.p0(i64 1, ptr %15) #8
  store i8 0, ptr %15, align 1
  %38 = getelementptr inbounds [1 x %struct.__jmp_buf_tag], ptr %14, i64 0, i64 0
  %39 = call i32 @__sigsetjmp(ptr noundef %38, i32 noundef 0) #10
  %40 = icmp eq i32 %39, 0
  br i1 %40, label %41, label %44

41:                                               ; preds = %35
  store ptr %14, ptr @PG_exception_stack, align 8
  %42 = getelementptr inbounds [1024 x i8], ptr %9, i64 0, i64 0
  %43 = call i32 @OpenTransientFilePerm(ptr noundef %42, i32 noundef 577, i32 noundef 420)
  store i32 %43, ptr %5, align 4
  br label %45

44:                                               ; preds = %35
  store i8 1, ptr %15, align 1
  br label %45

45:                                               ; preds = %44, %41
  %46 = load ptr, ptr %12, align 8
  store ptr %46, ptr @PG_exception_stack, align 8
  %47 = load ptr, ptr %13, align 8
  store ptr %47, ptr @error_context_stack, align 8
  %48 = load i32, ptr %11, align 4
  %49 = call i32 @umask(i32 noundef %48) #8
  %50 = load i8, ptr %15, align 1, !range !6, !noundef !7
  %51 = trunc i8 %50 to i1
  br i1 %51, label %52, label %53

52:                                               ; preds = %45
  call void @pg_re_throw() #11
  unreachable

53:                                               ; preds = %45
  %54 = load ptr, ptr %12, align 8
  store ptr %54, ptr @PG_exception_stack, align 8
  %55 = load ptr, ptr %13, align 8
  store ptr %55, ptr @error_context_stack, align 8
  call void @llvm.lifetime.end.p0(i64 1, ptr %15) #8
  call void @llvm.lifetime.end.p0(i64 200, ptr %14) #8
  call void @llvm.lifetime.end.p0(i64 8, ptr %13) #8
  call void @llvm.lifetime.end.p0(i64 8, ptr %12) #8
  br label %56

56:                                               ; preds = %53
  br label %57

57:                                               ; preds = %56
  %58 = load i32, ptr %5, align 4
  %59 = icmp slt i32 %58, 0
  br i1 %59, label %60, label %73

60:                                               ; preds = %57
  br label %61

61:                                               ; preds = %60
  br i1 true, label %62, label %64

62:                                               ; preds = %61
  %63 = call zeroext i1 @errstart_cold(i32 noundef 21, ptr noundef null) #9
  br i1 %63, label %66, label %70

64:                                               ; preds = %61
  %65 = call zeroext i1 @errstart(i32 noundef 21, ptr noundef null)
  br i1 %65, label %66, label %70

66:                                               ; preds = %64, %62
  %67 = call i32 @errcode_for_file_access()
  %68 = getelementptr inbounds [1024 x i8], ptr %9, i64 0, i64 0
  %69 = call i32 (ptr, ...) @errmsg(ptr noundef @.str.13, ptr noundef %68)
  call void @errfinish(ptr noundef @.str.2, i32 noundef 527, ptr noundef @__func__.be_lo_export)
  br label %70

70:                                               ; preds = %66, %64, %62
  unreachable

71:                                               ; No predecessors!
  br label %72

72:                                               ; preds = %71
  br label %73

73:                                               ; preds = %72, %57
  br label %74

74:                                               ; preds = %102, %73
  %75 = load ptr, ptr %10, align 8
  %76 = getelementptr inbounds [8192 x i8], ptr %8, i64 0, i64 0
  %77 = call i32 @inv_read(ptr noundef %75, ptr noundef %76, i32 noundef 8192)
  store i32 %77, ptr %6, align 4
  %78 = icmp sgt i32 %77, 0
  br i1 %78, label %79, label %103

79:                                               ; preds = %74
  %80 = load i32, ptr %5, align 4
  %81 = getelementptr inbounds [8192 x i8], ptr %8, i64 0, i64 0
  %82 = load i32, ptr %6, align 4
  %83 = sext i32 %82 to i64
  %84 = call i64 @write(i32 noundef %80, ptr noundef %81, i64 noundef %83)
  %85 = trunc i64 %84 to i32
  store i32 %85, ptr %7, align 4
  %86 = load i32, ptr %7, align 4
  %87 = load i32, ptr %6, align 4
  %88 = icmp ne i32 %86, %87
  br i1 %88, label %89, label %102

89:                                               ; preds = %79
  br label %90

90:                                               ; preds = %89
  br i1 true, label %91, label %93

91:                                               ; preds = %90
  %92 = call zeroext i1 @errstart_cold(i32 noundef 21, ptr noundef null) #9
  br i1 %92, label %95, label %99

93:                                               ; preds = %90
  %94 = call zeroext i1 @errstart(i32 noundef 21, ptr noundef null)
  br i1 %94, label %95, label %99

95:                                               ; preds = %93, %91
  %96 = call i32 @errcode_for_file_access()
  %97 = getelementptr inbounds [1024 x i8], ptr %9, i64 0, i64 0
  %98 = call i32 (ptr, ...) @errmsg(ptr noundef @.str.14, ptr noundef %97)
  call void @errfinish(ptr noundef @.str.2, i32 noundef 539, ptr noundef @__func__.be_lo_export)
  br label %99

99:                                               ; preds = %95, %93, %91
  unreachable

100:                                              ; No predecessors!
  br label %101

101:                                              ; preds = %100
  br label %102

102:                                              ; preds = %101, %79
  br label %74, !llvm.loop !10

103:                                              ; preds = %74
  %104 = load i32, ptr %5, align 4
  %105 = call i32 @CloseTransientFile(i32 noundef %104)
  %106 = icmp ne i32 %105, 0
  br i1 %106, label %107, label %120

107:                                              ; preds = %103
  br label %108

108:                                              ; preds = %107
  br i1 true, label %109, label %111

109:                                              ; preds = %108
  %110 = call zeroext i1 @errstart_cold(i32 noundef 21, ptr noundef null) #9
  br i1 %110, label %113, label %117

111:                                              ; preds = %108
  %112 = call zeroext i1 @errstart(i32 noundef 21, ptr noundef null)
  br i1 %112, label %113, label %117

113:                                              ; preds = %111, %109
  %114 = call i32 @errcode_for_file_access()
  %115 = getelementptr inbounds [1024 x i8], ptr %9, i64 0, i64 0
  %116 = call i32 (ptr, ...) @errmsg(ptr noundef @.str.15, ptr noundef %115)
  call void @errfinish(ptr noundef @.str.2, i32 noundef 546, ptr noundef @__func__.be_lo_export)
  br label %117

117:                                              ; preds = %113, %111, %109
  unreachable

118:                                              ; No predecessors!
  br label %119

119:                                              ; preds = %118
  br label %120

120:                                              ; preds = %119, %103
  %121 = load ptr, ptr %10, align 8
  call void @inv_close(ptr noundef %121)
  %122 = call i64 @Int32GetDatum(i32 noundef 1)
  call void @llvm.lifetime.end.p0(i64 4, ptr %11) #8
  call void @llvm.lifetime.end.p0(i64 8, ptr %10) #8
  call void @llvm.lifetime.end.p0(i64 1024, ptr %9) #8
  call void @llvm.lifetime.end.p0(i64 8192, ptr %8) #8
  call void @llvm.lifetime.end.p0(i64 4, ptr %7) #8
  call void @llvm.lifetime.end.p0(i64 4, ptr %6) #8
  call void @llvm.lifetime.end.p0(i64 4, ptr %5) #8
  call void @llvm.lifetime.end.p0(i64 8, ptr %4) #8
  call void @llvm.lifetime.end.p0(i64 4, ptr %3) #8
  ret i64 %122
}