; Function Attrs: nounwind uwtable
define dso_local noundef range(i64 -2147483648, 2147483648) i64 @be_lo_export(ptr noundef readonly captures(none) %0) local_unnamed_addr #0 {
  %2 = alloca [8192 x i8], align 16
  %3 = alloca [1024 x i8], align 16
  %4 = alloca [1 x %struct.__jmp_buf_tag], align 16
  %5 = getelementptr inbounds nuw i8, ptr %0, i64 32
  %6 = load i64, ptr %5, align 8
  %7 = trunc i64 %6 to i32
  %8 = getelementptr inbounds nuw i8, ptr %0, i64 48
  %9 = load i64, ptr %8, align 8
  %10 = inttoptr i64 %9 to ptr
  %11 = call ptr @pg_detoast_datum_packed(ptr noundef %10) #10
  call void @llvm.lifetime.start.p0(i64 8192, ptr nonnull %2) #10
  call void @llvm.lifetime.start.p0(i64 1024, ptr nonnull %3) #10
  store i1 true, ptr @lo_cleanup_needed, align 1
  %12 = load ptr, ptr @CurrentMemoryContext, align 8
  %13 = call ptr @inv_open(i32 noundef %7, i32 noundef 262144, ptr noundef %12) #10
  call void @text_to_cstring_buffer(ptr noundef %11, ptr noundef nonnull %3, i64 noundef 1024) #10
  %14 = call i32 @umask(i32 noundef 18) #10
  %15 = load ptr, ptr @PG_exception_stack, align 8
  %16 = load ptr, ptr @error_context_stack, align 8
  call void @llvm.lifetime.start.p0(i64 200, ptr nonnull %4) #10
  %17 = call i32 @__sigsetjmp(ptr noundef nonnull %4, i32 noundef 0) #12
  %.not = icmp eq i32 %17, 0
  br i1 %.not, label %20, label %18

18:                                               ; preds = %1
  store ptr %15, ptr @PG_exception_stack, align 8
  store ptr %16, ptr @error_context_stack, align 8
  %19 = call i32 @umask(i32 noundef %14) #10
  call void @pg_re_throw() #13
  unreachable

20:                                               ; preds = %1
  store ptr %4, ptr @PG_exception_stack, align 8
  %21 = call i32 @OpenTransientFilePerm(ptr noundef nonnull %3, i32 noundef 577, i32 noundef 420) #10
  store ptr %15, ptr @PG_exception_stack, align 8
  store ptr %16, ptr @error_context_stack, align 8
  %22 = call i32 @umask(i32 noundef %14) #10
  store ptr %15, ptr @PG_exception_stack, align 8
  store ptr %16, ptr @error_context_stack, align 8
  call void @llvm.lifetime.end.p0(i64 200, ptr nonnull %4) #10
  %23 = icmp slt i32 %21, 0
  br i1 %23, label %24, label %.preheader

24:                                               ; preds = %20
  %25 = call zeroext i1 @errstart_cold(i32 noundef 21, ptr noundef null) #11
  call void @llvm.assume(i1 %25)
  %26 = call i32 @errcode_for_file_access() #10
  %27 = call i32 (ptr, ...) @errmsg(ptr noundef nonnull @.str.13, ptr noundef nonnull %3) #10
  call void @errfinish(ptr noundef nonnull @.str.2, i32 noundef 527, ptr noundef nonnull @__func__.be_lo_export) #10
  unreachable

.preheader:                                       ; preds = %20, %30
  %28 = call i32 @inv_read(ptr noundef %13, ptr noundef nonnull %2, i32 noundef 8192) #10
  %29 = icmp sgt i32 %28, 0
  br i1 %29, label %30, label %38

30:                                               ; preds = %.preheader
  %31 = zext nneg i32 %28 to i64
  %32 = call i64 @write(i32 noundef %21, ptr noundef nonnull %2, i64 noundef %31) #10
  %33 = trunc i64 %32 to i32
  %.not20 = icmp eq i32 %28, %33
  br i1 %.not20, label %.preheader, label %34, !llvm.loop !10

34:                                               ; preds = %30
  %35 = call zeroext i1 @errstart_cold(i32 noundef 21, ptr noundef null) #11
  call void @llvm.assume(i1 %35)
  %36 = call i32 @errcode_for_file_access() #10
  %37 = call i32 (ptr, ...) @errmsg(ptr noundef nonnull @.str.14, ptr noundef nonnull %3) #10
  call void @errfinish(ptr noundef nonnull @.str.2, i32 noundef 539, ptr noundef nonnull @__func__.be_lo_export) #10
  unreachable

38:                                               ; preds = %.preheader
  %39 = call i32 @CloseTransientFile(i32 noundef %21) #10
  %.not19 = icmp eq i32 %39, 0
  br i1 %.not19, label %44, label %40

40:                                               ; preds = %38
  %41 = call zeroext i1 @errstart_cold(i32 noundef 21, ptr noundef null) #11
  call void @llvm.assume(i1 %41)
  %42 = call i32 @errcode_for_file_access() #10
  %43 = call i32 (ptr, ...) @errmsg(ptr noundef nonnull @.str.15, ptr noundef nonnull %3) #10
  call void @errfinish(ptr noundef nonnull @.str.2, i32 noundef 546, ptr noundef nonnull @__func__.be_lo_export) #10
  unreachable

44:                                               ; preds = %38
  call void @inv_close(ptr noundef %13) #10
  call void @llvm.lifetime.end.p0(i64 1024, ptr nonnull %3) #10
  call void @llvm.lifetime.end.p0(i64 8192, ptr nonnull %2) #10
  ret i64 1
}